(lp0
Vhttps://www.facebook.com/madi.schumacher.5?fref=pb
p1
aVhttps://www.facebook.com/lily.sinclair.3?fref=pb
p2
aVhttps://www.facebook.com/donyakay?fref=pb
p3
aVhttps://www.facebook.com/emily.griffin.3954?fref=pb
p4
aVhttps://www.facebook.com/BLAIRASHTON18?fref=pb
p5
aVhttps://www.facebook.com/heaven.anderson.142?fref=pb
p6
aVhttps://www.facebook.com/scott.key.7737?fref=pb
p7
aVhttps://www.facebook.com/carly.carpenter.9?fref=pb
p8
aVhttps://www.facebook.com/callieshay.phillips?fref=pb
p9
aVhttps://www.facebook.com/stacey.andrews.phillips?fref=pb
p10
aVhttps://www.facebook.com/profile.php?id=100009378477556
p11
aVhttps://www.facebook.com/alivia.butler?fref=pb
p12
aVhttps://www.facebook.com/lexi.west.54?fref=pb
p13
aVhttps://www.facebook.com/profile.php?id=100006972510805
p14
aVhttps://www.facebook.com/vicki.s.gray.7?fref=pb
p15
aVhttps://www.facebook.com/stephanie.a.hart.79?fref=pb
p16
aVhttps://www.facebook.com/kodie.rae.5?fref=pb
p17
aVhttps://www.facebook.com/steven.castera?fref=pb
p18
aVhttps://www.facebook.com/profile.php?id=100009582512328
p19
aVhttps://www.facebook.com/taylor.nicole.7712?fref=pb
p20
aVhttps://www.facebook.com/tiffany.elywheeler?fref=pb
p21
aVhttps://www.facebook.com/kjones36?fref=pb
p22
aVhttps://www.facebook.com/jerrod.gray3?fref=pb
p23
aVhttps://www.facebook.com/dylan.owens.16?fref=pb
p24
aVhttps://www.facebook.com/lauren.osburn.9?fref=pb
p25
aVhttps://www.facebook.com/brooke.mcinturff?fref=pb
p26
aVhttps://www.facebook.com/profile.php?id=1468186569
p27
aVhttps://www.facebook.com/madisonpj?fref=pb
p28
aVhttps://www.facebook.com/kelsey.drees.9?fref=pb
p29
aVhttps://www.facebook.com/bailee.c.richey?fref=pb
p30
aVhttps://www.facebook.com/chelsea.l.bond?fref=pb
p31
aVhttps://www.facebook.com/callie.r.richard?fref=pb
p32
aVhttps://www.facebook.com/millie.sandy.1?fref=pb
p33
aVhttps://www.facebook.com/blakely.moore.7?fref=pb
p34
aVhttps://www.facebook.com/donna.p.sanders?fref=pb
p35
aVhttps://www.facebook.com/debbie.w.phillips.330?fref=pb
p36
aVhttps://www.facebook.com/jerry.gray.9279?fref=pb
p37
aVhttps://www.facebook.com/dewayne.phillips.545?fref=pb
p38
aVhttps://www.facebook.com/montanna.albay?fref=pb
p39
aVhttps://www.facebook.com/kimberly.m.andrews?fref=pb
p40
aVhttps://www.facebook.com/braci.cook?fref=pb
p41
aVhttps://www.facebook.com/haden.majors?fref=pb
p42
aVhttps://www.facebook.com/amy.oxnertullos?fref=pb
p43
aVhttps://www.facebook.com/grayson.phillips.184?fref=pb
p44
aVhttps://www.facebook.com/jordan.kinderkincheloe?fref=pb
p45
aVhttps://www.facebook.com/jdabic?fref=pb
p46
aVhttps://www.facebook.com/rnqtee75?fref=pb
p47
aVhttps://www.facebook.com/riley.cook.581?fref=pb
p48
aVhttps://www.facebook.com/caleigh.pickard?fref=pb
p49
aVhttps://www.facebook.com/ashley.c.zimmerman?fref=pb
p50
aVhttps://www.facebook.com/profile.php?id=100009817002070
p51
aVhttps://www.facebook.com/pcpennock?fref=pb
p52
aVhttps://www.facebook.com/dana.richard.50?fref=pb
p53
aVhttps://www.facebook.com/lauren.nena?fref=pb
p54
aVhttps://www.facebook.com/brycescott0219?fref=pb
p55
aVhttps://www.facebook.com/brooklyn.dyane?fref=pb
p56
aVhttps://www.facebook.com/lexy.southerland?fref=pb
p57
aVhttps://www.facebook.com/kyla.soden?fref=pb
p58
aVhttps://www.facebook.com/phil.aloisio?fref=pb
p59
aVhttps://www.facebook.com/nick.williams.39948856?fref=pb
p60
aVhttps://www.facebook.com/derek.gaudino.9?fref=pb
p61
aVhttps://www.facebook.com/kyle.wilkinson.31?fref=pb
p62
aVhttps://www.facebook.com/LisaHankins?fref=pb
p63
aVhttps://www.facebook.com/eli.mcclellan?fref=pb
p64
aVhttps://www.facebook.com/ashley.martin.7792052?fref=pb
p65
aVhttps://www.facebook.com/jessica.duncan.169?fref=pb
p66
aVhttps://www.facebook.com/bryson.mccall?fref=pb
p67
aVhttps://www.facebook.com/sarah.mitchell.376?fref=pb
p68
aVhttps://www.facebook.com/savannah.miller.395?fref=pb
p69
aVhttps://www.facebook.com/taylor.raymond?fref=pb
p70
aVhttps://www.facebook.com/stephanie.s.giunta?fref=pb
p71
aVhttps://www.facebook.com/bethany.p.knowles?fref=pb
p72
aVhttps://www.facebook.com/jpelts1?fref=pb
p73
aVhttps://www.facebook.com/madison.wood.587?fref=pb
p74
aVhttps://www.facebook.com/triston.womack?fref=pb
p75
aVhttps://www.facebook.com/greg.henschel.7?fref=pb
p76
aVhttps://www.facebook.com/brooklyn.e.cunningham?fref=pb
p77
aVhttps://www.facebook.com/crazylove.chicks?fref=pb
p78
aVhttps://www.facebook.com/popstarstacks?fref=pb
p79
aVhttps://www.facebook.com/dylan.billingsley.75?fref=pb
p80
aVhttps://www.facebook.com/brody.platt?fref=pb
p81
aVhttps://www.facebook.com/joe.einhorn?fref=pb
p82
aVhttps://www.facebook.com/hunter.milligan.10?fref=pb
p83
aVhttps://www.facebook.com/paypanless?fref=pb
p84
aVhttps://www.facebook.com/profile.php?id=100000119995288
p85
aVhttps://www.facebook.com/rebekah.harris.99?fref=pb
p86
aVhttps://www.facebook.com/karae.scroggins?fref=pb
p87
aVhttps://www.facebook.com/micah.hudson.94?fref=pb
p88
aVhttps://www.facebook.com/jack.b.teague?fref=pb
p89
aVhttps://www.facebook.com/cameron.copanic?fref=pb
p90
aVhttps://www.facebook.com/jordan.graham.94009?fref=pb
p91
aVhttps://www.facebook.com/maddie.coffer?fref=pb
p92
aVhttps://www.facebook.com/kaytie.crowder?fref=pb
p93
aVhttps://www.facebook.com/brooke.rankin.5?fref=pb
p94
aVhttps://www.facebook.com/austin.binsted?fref=pb
p95
aVhttps://www.facebook.com/harley.rea?fref=pb
p96
aVhttps://www.facebook.com/taryn.phares?fref=pb
p97
aVhttps://www.facebook.com/evan.hooper.5?fref=pb
p98
aVhttps://www.facebook.com/kaleb.schmidt.3?fref=pb
p99
aVhttps://www.facebook.com/linda.morgan.73700?fref=pb
p100
aVhttps://www.facebook.com/parker.courson?fref=pb
p101
aVhttps://www.facebook.com/chad.hart.338?fref=pb
p102
aVhttps://www.facebook.com/reece.goudeau?fref=pb
p103
aVhttps://www.facebook.com/kimberly.atwell.7?fref=pb
p104
aVhttps://www.facebook.com/richardmichelle.barnt?fref=pb
p105
aVhttps://www.facebook.com/alexis.reid.777701?fref=pb
p106
aVhttps://www.facebook.com/evan.nesbitt.xa?fref=pb
p107
aVhttps://www.facebook.com/justinlacey.heslep?fref=pb
p108
aVhttps://www.facebook.com/sara.b.morrow?fref=pb
p109
aVhttps://www.facebook.com/logan.showalter.9?fref=pb
p110
aVhttps://www.facebook.com/brayden.giesler?fref=pb
p111
aVhttps://www.facebook.com/gailpaulsmith?fref=pb
p112
aVhttps://www.facebook.com/profile.php?id=1434250663
p113
aVhttps://www.facebook.com/miranda.a.walker?fref=pb
p114
aVhttps://www.facebook.com/jenel.carpenter?fref=pb
p115
aVhttps://www.facebook.com/maddie.maness.1?fref=pb
p116
aVhttps://www.facebook.com/kadin.phillips.1?fref=pb
p117
aVhttps://www.facebook.com/bonnie.smith.12914?fref=pb
p118
aVhttps://www.facebook.com/brock.bottorff?fref=pb
p119
aVhttps://www.facebook.com/saranjustin.winn?fref=pb
p120
aVhttps://www.facebook.com/lori.turnernakken?fref=pb
p121
aVhttps://www.facebook.com/kevin.pulliam?fref=pb
p122
aVhttps://www.facebook.com/edward.bell.391082?fref=pb
p123
aVhttps://www.facebook.com/robinleigh.bell?fref=pb
p124
aVhttps://www.facebook.com/bethany.fowler.129?fref=pb
p125
aVhttps://www.facebook.com/debbierook11?fref=pb
p126
aVhttps://www.facebook.com/tresa.vancephillips?fref=pb
p127
aVhttps://www.facebook.com/brittany.michelle.1422?fref=pb
p128
aVhttps://www.facebook.com/elaine.gillham.3?fref=pb
p129
aVhttps://www.facebook.com/grayson.phillips.520?fref=pb
p130
aVhttps://www.facebook.com/lisa.ford.7505?fref=pb
p131
aVhttps://www.facebook.com/julie.eddy.79?fref=pb
p132
aVhttps://www.facebook.com/JasonWisley.575?fref=pb
p133
aVhttps://www.facebook.com/carole.lyonsfortson?fref=pb
p134
aVhttps://www.facebook.com/livy.andrews.1?fref=pb
p135
aVhttps://www.facebook.com/jillian.terry.98?fref=pb
p136
aVhttps://www.facebook.com/jenny.wiens.7?fref=pb
p137
aVhttps://www.facebook.com/haley.parkes?fref=pb
p138
aVhttps://www.facebook.com/breanna.justice.79?fref=pb
p139
aVhttps://www.facebook.com/profile.php?id=100008194455586
p140
aVhttps://www.facebook.com/robyn.walters.127?fref=pb
p141
aVhttps://www.facebook.com/mallory.tullos?fref=pb
p142
aVhttps://www.facebook.com/joshuapadair?fref=pb
p143
aVhttps://www.facebook.com/michell.steele?fref=pb
p144
aVhttps://www.facebook.com/aero1987?fref=pb
p145
aVhttps://www.facebook.com/jonhanshaw?fref=pb
p146
aVhttps://www.facebook.com/callie.whidby.9?fref=pb
p147
aVhttps://www.facebook.com/kelcie.tullos?fref=pb
p148
aVhttps://www.facebook.com/lori.smith.3591267?fref=pb
p149
aVhttps://www.facebook.com/Beijing247?fref=pb
p150
aVhttps://www.facebook.com/brooke.miller.75?fref=pb
p151
aVhttps://www.facebook.com/profile.php?id=4913803
p152
aVhttps://www.facebook.com/katie.foust.16?fref=pb
p153
aVhttps://www.facebook.com/amber.pulliam1?fref=pb
p154
aVhttps://www.facebook.com/morgangoesmobile?fref=pb
p155
aVhttps://www.facebook.com/alyssa.hamilton.908?fref=pb
p156
aVhttps://www.facebook.com/noah.rosson?fref=pb
p157
aVhttps://www.facebook.com/tristin.snodgrass.1?fref=pb
p158
aVhttps://www.facebook.com/michael.rush.167?fref=pb
p159
aVhttps://www.facebook.com/shaylece.pruett?fref=pb
p160
aVhttps://www.facebook.com/jessica.arnold.923519?fref=pb
p161
aVhttps://www.facebook.com/Tillerty231?fref=pb
p162
aVhttps://www.facebook.com/tayloc4?fref=pb
p163
aVhttps://www.facebook.com/kristina.i.romesburg?fref=pb
p164
aVhttps://www.facebook.com/sydsaqt23?fref=pb
p165
aVhttps://www.facebook.com/kayla.moore.31?fref=pb
p166
aVhttps://www.facebook.com/L3xi3?fref=pb
p167
aVhttps://www.facebook.com/amanda.munoz.714?fref=pb
p168
aVhttps://www.facebook.com/Logankeown?fref=pb
p169
aVhttps://www.facebook.com/tgauden?fref=pb
p170
aVhttps://www.facebook.com/randi.bowen.5?fref=pb
p171
aVhttps://www.facebook.com/meagan.jones.79?fref=pb
p172
aVhttps://www.facebook.com/jamie.sanders.1654?fref=pb
p173
aVhttps://www.facebook.com/wes.hardin.56?fref=pb
p174
aVhttps://www.facebook.com/brent.clark.5209?fref=pb
p175
aVhttps://www.facebook.com/bayli.hanlein?fref=pb
p176
aVhttps://www.facebook.com/profile.php?id=633104270
p177
aVhttps://www.facebook.com/tcdrees?fref=pb
p178
aVhttps://www.facebook.com/chad.stevens.79?fref=pb
p179
aVhttps://www.facebook.com/profile.php?id=851685614
p180
aVhttps://www.facebook.com/kaylin.braughton?fref=pb
p181
aVhttps://www.facebook.com/drewstokes91?fref=pb
p182
aVhttps://www.facebook.com/kait.massie.1?fref=pb
p183
aVhttps://www.facebook.com/profile.php?id=706630176
p184
aVhttps://www.facebook.com/katy.ray.14?fref=pb
p185
aVhttps://www.facebook.com/Kylee.Dawn.Sims?fref=pb
p186
aVhttps://www.facebook.com/ben.willen.1?fref=pb
p187
aVhttps://www.facebook.com/holley.maynard?fref=pb
p188
aVhttps://www.facebook.com/tessamarie.zintel?fref=pb
p189
aVhttps://www.facebook.com/marie.byrd.370?fref=pb
p190
aVhttps://www.facebook.com/matthew.wolff.376?fref=pb
p191
aVhttps://www.facebook.com/krystal.morgandodson?fref=pb
p192
aVhttps://www.facebook.com/profile.php?id=721423884
p193
aVhttps://www.facebook.com/brittany.leann.73?fref=pb
p194
aVhttps://www.facebook.com/cambri.evans?fref=pb
p195
aVhttps://www.facebook.com/haylie.hart?fref=pb
p196
aVhttps://www.facebook.com/monica.keesee?fref=pb
p197
aVhttps://www.facebook.com/ashley.l.gray.79?fref=pb
p198
aVhttps://www.facebook.com/christian.huet.752?fref=pb
p199
aVhttps://www.facebook.com/tara.story.39?fref=pb
p200
aVhttps://www.facebook.com/peyton.bradshaw1?fref=pb
p201
aVhttps://www.facebook.com/bailey.hankins.12?fref=pb
p202
aVhttps://www.facebook.com/Tiger.Tim.Sirmans?fref=pb
p203
aVhttps://www.facebook.com/felicia.k.quinn?fref=pb
p204
aVhttps://www.facebook.com/payton.lynne?fref=pb
p205
aVhttps://www.facebook.com/jayleigh.page?fref=pb
p206
aVhttps://www.facebook.com/justin.stokes2?fref=pb
p207
aVhttps://www.facebook.com/jarah.goff?fref=pb
p208
aVhttps://www.facebook.com/sandra.smith.94?fref=pb
p209
aVhttps://www.facebook.com/katy.rush.3?fref=pb
p210
aVhttps://www.facebook.com/christy.hightower?fref=pb
p211
aVhttps://www.facebook.com/lisa.roth.127?fref=pb
p212
aVhttps://www.facebook.com/saylar.tedder?fref=pb
p213
aVhttps://www.facebook.com/bogeypat?fref=pb
p214
aVhttps://www.facebook.com/kyley.stricklin.5?fref=pb
p215
aVhttps://www.facebook.com/zachary.moore.900388?fref=pb
p216
aVhttps://www.facebook.com/lacy.holzhauer?fref=pb
p217
aVhttps://www.facebook.com/EthanHM?fref=pb
p218
aVhttps://www.facebook.com/logan.galloway3?fref=pb
p219
aVhttps://www.facebook.com/zach.wilson.9041?fref=pb
p220
aVhttps://www.facebook.com/grant.glaze.9?fref=pb
p221
aVhttps://www.facebook.com/peyton.shillcutt?fref=pb
p222
aVhttps://www.facebook.com/madie.johnson?fref=pb
p223
aVhttps://www.facebook.com/LoveBrooke15?fref=pb
p224
aVhttps://www.facebook.com/lissa.boundsmonroe?fref=pb
p225
aVhttps://www.facebook.com/haley.wynne.1?fref=pb
p226
aVhttps://www.facebook.com/madi.morris.16?fref=pb
p227
aVhttps://www.facebook.com/hannah.kline.129?fref=pb
p228
aVhttps://www.facebook.com/jacob.barnes.96?fref=pb
p229
aVhttps://www.facebook.com/renee.cook.144?fref=pb
p230
aVhttps://www.facebook.com/sydnie.ford.9?fref=pb
p231
aVhttps://www.facebook.com/kamille.best.3?fref=pb
p232
aVhttps://www.facebook.com/kbasinger1?fref=pb
p233
aVhttps://www.facebook.com/devin.ramer?fref=pb
p234
aVhttps://www.facebook.com/marie.calcaterra.3?fref=pb
p235
aVhttps://www.facebook.com/justin.swaim.5?fref=pb
p236
aVhttps://www.facebook.com/karen.hill.969952?fref=pb
p237
aVhttps://www.facebook.com/jody.adams.75?fref=pb
p238
aVhttps://www.facebook.com/collin.french.21?fref=pb
p239
aVhttps://www.facebook.com/renee.humphries?fref=pb
p240
aVhttps://www.facebook.com/terri.veatch?fref=pb
p241
aVhttps://www.facebook.com/kt.lyons12?fref=pb
p242
aVhttps://www.facebook.com/amaliegunnz7?fref=pb
p243
aVhttps://www.facebook.com/madison.b.morrow?fref=pb
p244
aVhttps://www.facebook.com/robert.rowland3?fref=pb
p245
aVhttps://www.facebook.com/tay.buggy99?fref=pb
p246
aVhttps://www.facebook.com/dana.dobbinswhidby?fref=pb
p247
aVhttps://www.facebook.com/katelyn.n.koski?fref=pb
p248
aVhttps://www.facebook.com/josh.dollarhide.5?fref=pb
p249
aVhttps://www.facebook.com/kaitlyn.everson.1?fref=pb
p250
aVhttps://www.facebook.com/justin.cheatham.90?fref=pb
p251
aVhttps://www.facebook.com/lwjarrell?fref=pb
p252
aVhttps://www.facebook.com/jacob.crowder.7?fref=pb
p253
aVhttps://www.facebook.com/priscilla.morris.90?fref=pb
p254
aVhttps://www.facebook.com/jackeline.salazar.16?fref=pb
p255
aVhttps://www.facebook.com/noel.a.thornton?fref=pb
p256
aVhttps://www.facebook.com/blake.deleon.7?fref=pb
p257
aVhttps://www.facebook.com/sydney.morris.39?fref=pb
p258
aVhttps://www.facebook.com/lindsey.brooke3?fref=pb
p259
aVhttps://www.facebook.com/belinda.lawrence.7?fref=pb
p260
aVhttps://www.facebook.com/joseph.giunta?fref=pb
p261
aVhttps://www.facebook.com/chrlmfld?fref=pb
p262
aVhttps://www.facebook.com/chris.strong.90834?fref=pb
p263
aVhttps://www.facebook.com/jason.nakken?fref=pb
p264
aVhttps://www.facebook.com/terra.johnson.10?fref=pb
p265
aVhttps://www.facebook.com/hunter.cole.1257?fref=pb
p266
aVhttps://www.facebook.com/madisonluman?fref=pb
p267
aVhttps://www.facebook.com/jessica.allenbaugh?fref=pb
p268
aVhttps://www.facebook.com/jayden.hart.3?fref=pb
p269
aVhttps://www.facebook.com/brittany.livingston.921?fref=pb
p270
aVhttps://www.facebook.com/colby.tolison?fref=pb
p271
aVhttps://www.facebook.com/B.TurnerJV?fref=pb
p272
aVhttps://www.facebook.com/brandi.knowles?fref=pb
p273
aVhttps://www.facebook.com/hallie.e.wilson?fref=pb
p274
aVhttps://www.facebook.com/randee.king.3?fref=pb
p275
aVhttps://www.facebook.com/mirandahelen23?fref=pb
p276
aVhttps://www.facebook.com/travis.trammel.1?fref=pb
p277
aVhttps://www.facebook.com/cole.ryan.904?fref=pb
p278
aVhttps://www.facebook.com/laandrews1?fref=pb
p279
aVhttps://www.facebook.com/drew.toler?fref=pb
p280
aVhttps://www.facebook.com/tori.woods.5?fref=pb
p281
aVhttps://www.facebook.com/laura.b.greenwood?fref=pb
p282
aVhttps://www.facebook.com/landin.shoup?fref=pb
p283
aVhttps://www.facebook.com/graceon.trickey?fref=pb
p284
aVhttps://www.facebook.com/fernanda.trevisan?fref=pb
p285
aVhttps://www.facebook.com/lamb.andi?fref=pb
p286
aVhttps://www.facebook.com/autumn.hurst.1?fref=pb
p287
aVhttps://www.facebook.com/trent.mcillwain?fref=pb
p288
aVhttps://www.facebook.com/kaitlyn.best.1238?fref=pb
p289
aVhttps://www.facebook.com/liz.mosher.37?fref=pb
p290
aVhttps://www.facebook.com/MajorPayne007?fref=pb
p291
aVhttps://www.facebook.com/kayla.m.verbeck?fref=pb
p292
aVhttps://www.facebook.com/korey.vaughn.9?fref=pb
p293
aVhttps://www.facebook.com/carrie.r.chamness?fref=pb
p294
aVhttps://www.facebook.com/conor.jacob.7?fref=pb
p295
aVhttps://www.facebook.com/vramer?fref=pb
p296
aVhttps://www.facebook.com/austin.alley.3?fref=pb
p297
aVhttps://www.facebook.com/jessica.price.3785?fref=pb
p298
aVhttps://www.facebook.com/marciejo.duncan?fref=pb
p299
aVhttps://www.facebook.com/shelby.l.braswell?fref=pb
p300
aVhttps://www.facebook.com/austin.s.kading?fref=pb
p301
aVhttps://www.facebook.com/peter.seyler?fref=pb
p302
aVhttps://www.facebook.com/olimpia.manzoni?fref=pb
p303
aVhttps://www.facebook.com/profile.php?id=1472907575
p304
aVhttps://www.facebook.com/mackenzie.horner.7?fref=pb
p305
aVhttps://www.facebook.com/drew.stout.5?fref=pb
p306
aVhttps://www.facebook.com/becka.marie.98?fref=pb
p307
aVhttps://www.facebook.com/tyler.stone.376?fref=pb
p308
aVhttps://www.facebook.com/tmaynard16?fref=pb
p309
aVhttps://www.facebook.com/paula.s.maynard?fref=pb
p310
aVhttps://www.facebook.com/jamie.goodpaster.7?fref=pb
p311
aVhttps://www.facebook.com/angelkisses11?fref=pb
p312
aVhttps://www.facebook.com/wise.devin?fref=pb
p313
aVhttps://www.facebook.com/tina.townsenddean?fref=pb
p314
aVhttps://www.facebook.com/jimmie.padgett.73?fref=pb
p315
aVhttps://www.facebook.com/caleebeardsmith?fref=pb
p316
aVhttps://www.facebook.com/jordan.henry.106?fref=pb
p317
aVhttps://www.facebook.com/tiffany.gentry.98?fref=pb
p318
aVhttps://www.facebook.com/cameron.f.vest?fref=pb
p319
aVhttps://www.facebook.com/hunter.wood.927?fref=pb
p320
aVhttps://www.facebook.com/jarrett.humphries?fref=pb
p321
aVhttps://www.facebook.com/EricAlan?fref=pb
p322
aVhttps://www.facebook.com/insane.lane.herald?fref=pb
p323
aVhttps://www.facebook.com/paige.walters.58?fref=pb
p324
aVhttps://www.facebook.com/jcantey1?fref=pb
p325
aVhttps://www.facebook.com/brandon.pemberton.56?fref=pb
p326
aVhttps://www.facebook.com/ryan.lehman62?fref=pb
p327
aVhttps://www.facebook.com/joy.gray.357?fref=pb
p328
aVhttps://www.facebook.com/chandler.barrick?fref=pb
p329
aVhttps://www.facebook.com/chloe.russell.980?fref=pb
p330
aVhttps://www.facebook.com/evan.pyland?fref=pb
p331
aVhttps://www.facebook.com/pop.rock1?fref=pb
p332
aVhttps://www.facebook.com/S99MIOECZKOWSKI?fref=pb
p333
aVhttps://www.facebook.com/sean.palmer.7374?fref=pb
p334
aVhttps://www.facebook.com/roberto.burnside?fref=pb
p335
aVhttps://www.facebook.com/bhenson1375?fref=pb
p336
aVhttps://www.facebook.com/profile.php?id=1521206177
p337
aVhttps://www.facebook.com/jake.harris.58173?fref=pb
p338
aVhttps://www.facebook.com/trey.stinnett2?fref=pb
p339
aVhttps://www.facebook.com/cassie.stokes.77?fref=pb
p340
aVhttps://www.facebook.com/lauren.raff?fref=pb
p341
aVhttps://www.facebook.com/jacob.womack2?fref=pb
p342
aVhttps://www.facebook.com/brandon.hammonds.507?fref=pb
p343
aVhttps://www.facebook.com/amanda.n.brucks?fref=pb
p344
aVhttps://www.facebook.com/cabotmathteacher?fref=pb
p345
aVhttps://www.facebook.com/tyler.w.lindsey?fref=pb
p346
aVhttps://www.facebook.com/evan.wilson.581?fref=pb
p347
aVhttps://www.facebook.com/Baseballswaggin13?fref=pb
p348
aVhttps://www.facebook.com/CHRISTYBELLDAVIS?fref=pb
p349
aVhttps://www.facebook.com/christian.otero.338?fref=pb
p350
aVhttps://www.facebook.com/langleyc2?fref=pb
p351
aVhttps://www.facebook.com/HottMomma123?fref=pb
p352
aVhttps://www.facebook.com/debby.h.rush?fref=pb
p353
aVhttps://www.facebook.com/jeni.fuller?fref=pb
p354
aVhttps://www.facebook.com/chrissy.dougherty.9?fref=pb
p355
aVhttps://www.facebook.com/june.gentry.5?fref=pb
p356
aVhttps://www.facebook.com/gracie.new?fref=pb
p357
aVhttps://www.facebook.com/codie.doran?fref=pb
p358
aVhttps://www.facebook.com/jazzie.tejeda?fref=pb
p359
aVhttps://www.facebook.com/WillGambill?fref=pb
p360
aVhttps://www.facebook.com/Grecefn?fref=pb
p361
aVhttps://www.facebook.com/zane.sullivan.10?fref=pb
p362
aVhttps://www.facebook.com/emilee.p.colvin?fref=pb
p363
aVhttps://www.facebook.com/ashlyn.smith.986?fref=pb
p364
aVhttps://www.facebook.com/emily.richard.7967?fref=pb
p365
aVhttps://www.facebook.com/catiehainey?fref=pb
p366
aVhttps://www.facebook.com/tyler.reed.507?fref=pb
p367
aVhttps://www.facebook.com/hunter.kloss?fref=pb
p368
aVhttps://www.facebook.com/kaitlan.andrews1?fref=pb
p369
aVhttps://www.facebook.com/emily.bell.52?fref=pb
p370
aVhttps://www.facebook.com/riley.eakin.7?fref=pb
p371
aVhttps://www.facebook.com/tristan.inman.5?fref=pb
p372
aVhttps://www.facebook.com/michelle.wuisantono?fref=pb
p373
aVhttps://www.facebook.com/riley.a.mcdonald?fref=pb
p374
aVhttps://www.facebook.com/heather.b.beard.3?fref=pb
p375
aVhttps://www.facebook.com/marketa.tesarova.16?fref=pb
p376
aVhttps://www.facebook.com/jake.boan.3?fref=pb
p377
aVhttps://www.facebook.com/paige.tacker?fref=pb
p378
aVhttps://www.facebook.com/dylan.speir.9?fref=pb
p379
aVhttps://www.facebook.com/seanna.nickel?fref=pb
p380
aVhttps://www.facebook.com/drake.wymer?fref=pb
p381
aVhttps://www.facebook.com/paul.andrews24?fref=pb
p382
aVhttps://www.facebook.com/crackmuffin69?fref=pb
p383
aVhttps://www.facebook.com/hbrooke3?fref=pb
p384
aVhttps://www.facebook.com/william.skipperwardwell?fref=pb
p385
aVhttps://www.facebook.com/courtney.bader?fref=pb
p386
aVhttps://www.facebook.com/tori.a.willison?fref=pb
p387
aVhttps://www.facebook.com/chris.w.wesner?fref=pb
p388
aVhttps://www.facebook.com/Mandahhhh?fref=pb
p389
aVhttps://www.facebook.com/illestskateralive?fref=pb
p390
aVhttps://www.facebook.com/jason.f.walker.5?fref=pb
p391
aVhttps://www.facebook.com/emily.beard.549?fref=pb
p392
aVhttps://www.facebook.com/robin.carterbratton?fref=pb
p393
aVhttps://www.facebook.com/ObamaLowery?fref=pb
p394
aVhttps://www.facebook.com/hrusher1?fref=pb
p395
aVhttps://www.facebook.com/frankburleson88?fref=pb
p396
aVhttps://www.facebook.com/zach.mcdaniel1?fref=pb
p397
aVhttps://www.facebook.com/sean.wardwell?fref=pb
p398
aVhttps://www.facebook.com/garrett.cram.5?fref=pb
p399
aVhttps://www.facebook.com/landon.s.james?fref=pb
p400
aVhttps://www.facebook.com/zackry.mitchell1?fref=pb
p401
aVhttps://www.facebook.com/kris.allen.75457?fref=pb
p402
aVhttps://www.facebook.com/hannah.montgomery.507?fref=pb
p403
aVhttps://www.facebook.com/tommy.brown.5454?fref=pb
p404
aVhttps://www.facebook.com/bryson.jackson3?fref=pb
p405
aVhttps://www.facebook.com/taylor.tristan.trent?fref=pb
p406
aVhttps://www.facebook.com/john.gardner.921025?fref=pb
p407
aVhttps://www.facebook.com/nick.anderson.39142?fref=pb
p408
aVhttps://www.facebook.com/lakota.stivers?fref=pb
p409
aVhttps://www.facebook.com/brooke.ashworth.5?fref=pb
p410
aVhttps://www.facebook.com/makenzie.carter.14?fref=pb
p411
aVhttps://www.facebook.com/alexbeaulieu0925?fref=pb
p412
aVhttps://www.facebook.com/britton.alley?fref=pb
p413
aVhttps://www.facebook.com/ThePlankster?fref=pb
p414
aVhttps://www.facebook.com/emily.nichols.18?fref=pb
p415
aVhttps://www.facebook.com/courtney.crossland.5?fref=pb
p416
aVhttps://www.facebook.com/tyler.browning.129?fref=pb
p417
aVhttps://www.facebook.com/maddie.gaddy?fref=pb
p418
aVhttps://www.facebook.com/luke.ferguson.3150?fref=pb
p419
aVhttps://www.facebook.com/sonya.carsontinkle?fref=pb
p420
aVhttps://www.facebook.com/brady.leatherberry?fref=pb
p421
aVhttps://www.facebook.com/Caleb.rumineR?fref=pb
p422
aVhttps://www.facebook.com/logan.b.smith.56?fref=pb
p423
aVhttps://www.facebook.com/lexi.vines?fref=pb
p424
aVhttps://www.facebook.com/christian.giunta.98?fref=pb
p425
aVhttps://www.facebook.com/Swilliamson91?fref=pb
p426
aVhttps://www.facebook.com/preston.durham.1?fref=pb
p427
aVhttps://www.facebook.com/jenna.bridges.9?fref=pb
p428
aVhttps://www.facebook.com/cade.leatherberry?fref=pb
p429
aVhttps://www.facebook.com/automn.rogers?fref=pb
p430
aVhttps://www.facebook.com/Therealtiffanythornton?fref=pb
p431
aVhttps://www.facebook.com/brent.spann.5?fref=pb
p432
aVhttps://www.facebook.com/hookemhorn?fref=pb
p433
aVhttps://www.facebook.com/brenmcelf?fref=pb
p434
aVhttps://www.facebook.com/corbin.friddle?fref=pb
p435
aVhttps://www.facebook.com/blake.bourgeois.54?fref=pb
p436
aVhttps://www.facebook.com/micah.long.9?fref=pb
p437
aVhttps://www.facebook.com/Bea.Blondie?fref=pb
p438
aVhttps://www.facebook.com/austin.branham3?fref=pb
p439
aVhttps://www.facebook.com/sarah.t.coffee?fref=pb
p440
aVhttps://www.facebook.com/tanner.elrod?fref=pb
p441
aVhttps://www.facebook.com/zackary.weddle?fref=pb
p442
aVhttps://www.facebook.com/chelsea.e.gatewood?fref=pb
p443
aVhttps://www.facebook.com/dylan.massey3?fref=pb
p444
aVhttps://www.facebook.com/lottie.sanderson?fref=pb
p445
aVhttps://www.facebook.com/patrick.partin?fref=pb
p446
aVhttps://www.facebook.com/susan.corn.9?fref=pb
p447
aVhttps://www.facebook.com/kayde.ridgeway?fref=pb
p448
aVhttps://www.facebook.com/whitney.n.baker?fref=pb
p449
aVhttps://www.facebook.com/clayton.brune?fref=pb
p450
aVhttps://www.facebook.com/kimberlyn.beard.1?fref=pb
p451
aVhttps://www.facebook.com/moestl.aldyansyah?fref=pb
p452
aVhttps://www.facebook.com/maddie.rice.3?fref=pb
p453
aVhttps://www.facebook.com/daily.ginger?fref=pb
p454
aVhttps://www.facebook.com/anna.snyder.391?fref=pb
p455
aVhttps://www.facebook.com/taylor.bell.399041?fref=pb
p456
aVhttps://www.facebook.com/joshua.kelpine?fref=pb
p457
aVhttps://www.facebook.com/colin.snyder.54?fref=pb
p458
aVhttps://www.facebook.com/chris.casas.31?fref=pb
p459
aVhttps://www.facebook.com/jared.grice.3?fref=pb
p460
aVhttps://www.facebook.com/BaileyDontTouch?fref=pb
p461
aVhttps://www.facebook.com/blake.palladino.9?fref=pb
p462
aVhttps://www.facebook.com/madison.powell.902?fref=pb
p463
aVhttps://www.facebook.com/shayleenagoode?fref=pb
p464
aVhttps://www.facebook.com/marlee.munford?fref=pb
p465
aVhttps://www.facebook.com/ILoveMadisonEvenMore?fref=pb
p466
aVhttps://www.facebook.com/tyler.hall.925602?fref=pb
p467
aVhttps://www.facebook.com/cheyenne.hagar.1?fref=pb
p468
aVhttps://www.facebook.com/colton.johnson.18400?fref=pb
p469
aVhttps://www.facebook.com/caitlin.alyssa.7?fref=pb
p470
aVhttps://www.facebook.com/BeastMode33?fref=pb
p471
aVhttps://www.facebook.com/brayden.johnson.3388?fref=pb
p472
aVhttps://www.facebook.com/sammy.swanson.1?fref=pb
p473
aVhttps://www.facebook.com/blake.mccutchen?fref=pb
p474
aVhttps://www.facebook.com/cassie.sanderson3?fref=pb
p475
aVhttps://www.facebook.com/paige.gentry.12?fref=pb
p476
aVhttps://www.facebook.com/tori.pritchard.39?fref=pb
p477
aVhttps://www.facebook.com/cameron.thornton.79?fref=pb
p478
aVhttps://www.facebook.com/madison.boyd.90?fref=pb
p479
aVhttps://www.facebook.com/andrew.dover.98?fref=pb
p480
aVhttps://www.facebook.com/gaige.long?fref=pb
p481
aVhttps://www.facebook.com/shawna.goode.3?fref=pb
p482
aVhttps://www.facebook.com/brandi.brandicyrus?fref=pb
p483
aVhttps://www.facebook.com/miley.loveuc?fref=pb
p484
aVhttps://www.facebook.com/brandie.c.smith?fref=pb
p485
aVhttps://www.facebook.com/logan.gilbertson?fref=pb
p486
aVhttps://www.facebook.com/dylan.jenkins.94?fref=pb
p487
aVhttps://www.facebook.com/daniel.s.hammond.16?fref=pb
p488
aVhttps://www.facebook.com/profile.php?id=100000279670214
p489
aVhttps://www.facebook.com/chuck.vincent1?fref=pb
p490
aVhttps://www.facebook.com/emily.west.5209?fref=pb
p491
aVhttps://www.facebook.com/ray.amanda.10?fref=pb
p492
aVhttps://www.facebook.com/sid.carter.79?fref=pb
p493
aVhttps://www.facebook.com/alex.castleberry.9?fref=pb
p494
aVhttps://www.facebook.com/kelsey.eggers.9?fref=pb
p495
aVhttps://www.facebook.com/reagan.nicole.562?fref=pb
p496
aVhttps://www.facebook.com/dayton.johnston.3?fref=pb
p497
aVhttps://www.facebook.com/chase.kyzer?fref=pb
p498
aVhttps://www.facebook.com/blake.morrow.336?fref=pb
p499
aVhttps://www.facebook.com/hackerblake92?fref=pb
p500
aVhttps://www.facebook.com/drevin.fetterolf?fref=pb
p501
aVhttps://www.facebook.com/katelyn.gahr?fref=pb
p502
aVhttps://www.facebook.com/sommer.bunting?fref=pb
p503
aVhttps://www.facebook.com/dfurrh?fref=pb
p504
aVhttps://www.facebook.com/push.rock.1?fref=pb
p505
aVhttps://www.facebook.com/putrisukma.illahi?fref=pb
p506
aVhttps://www.facebook.com/tamera.finney?fref=pb
p507
aVhttps://www.facebook.com/julia.basye?fref=pb
p508
aVhttps://www.facebook.com/hammkelsey?fref=pb
p509
aVhttps://www.facebook.com/bailey.finley.16?fref=pb
p510
aVhttps://www.facebook.com/cody.hale.547?fref=pb
p511
aVhttps://www.facebook.com/ashley.nichole.777701?fref=pb
p512
aVhttps://www.facebook.com/hannah.hanshaw?fref=pb
p513
aVhttps://www.facebook.com/josh.bryant.528?fref=pb
p514
aVhttps://www.facebook.com/mason.bailey.777?fref=pb
p515
aVhttps://www.facebook.com/kody.stricklin?fref=pb
p516
aVhttps://www.facebook.com/easton.seidl?fref=pb
p517
aVhttps://www.facebook.com/noah.ross.946?fref=pb
p518
aVhttps://www.facebook.com/kolby.cole?fref=pb
p519
aVhttps://www.facebook.com/chris.odom.794?fref=pb
p520
aVhttps://www.facebook.com/19981026seth?fref=pb
p521
aVhttps://www.facebook.com/OTH.Alex.Speedy.Watford?fref=pb
p522
aVhttps://www.facebook.com/camryn.harmon?fref=pb
p523
aVhttps://www.facebook.com/justin.windemaker?fref=pb
p524
aVhttps://www.facebook.com/connor.desilets?fref=pb
p525
aVhttps://www.facebook.com/madi.spears.5?fref=pb
p526
aVhttps://www.facebook.com/gracie.layne.7?fref=pb
p527
aVhttps://www.facebook.com/katie.munns.37?fref=pb
p528
aVhttps://www.facebook.com/jordan.rogers.3572?fref=pb
p529
aVhttps://www.facebook.com/kaitlyn.boles.9?fref=pb
p530
aVhttps://www.facebook.com/alison.decou?fref=pb
p531
aVhttps://www.facebook.com/cole.stracener?fref=pb
p532
aVhttps://www.facebook.com/melissa.raaschhanshaw?fref=pb
p533
aVhttps://www.facebook.com/profile.php?id=100000482765168
p534
aVhttps://www.facebook.com/brylee.quarnstrom?fref=pb
p535
aVhttps://www.facebook.com/bobby.duncan.370?fref=pb
p536
aVhttps://www.facebook.com/derek.castle.7?fref=pb
p537
aVhttps://www.facebook.com/miranda123?fref=pb
p538
aVhttps://www.facebook.com/allicen.morris?fref=pb
p539
aVhttps://www.facebook.com/ardene.smithers?fref=pb
p540
aVhttps://www.facebook.com/alexis.a.nance?fref=pb
p541
aVhttps://www.facebook.com/ericka.ivey.9?fref=pb
p542
aVhttps://www.facebook.com/mattie.lynch.1?fref=pb
p543
aVhttps://www.facebook.com/kayla.ann.50364?fref=pb
p544
aVhttps://www.facebook.com/katlyn.d.baugh?fref=pb
p545
aVhttps://www.facebook.com/michelle.lievsay.1?fref=pb
p546
aVhttps://www.facebook.com/ross1938?fref=pb
p547
aVhttps://www.facebook.com/josh.bader1?fref=pb
p548
aVhttps://www.facebook.com/jon.house.338?fref=pb
p549
aVhttps://www.facebook.com/ryan.jenkins.5099?fref=pb
p550
aVhttps://www.facebook.com/softballchickadams?fref=pb
p551
aVhttps://www.facebook.com/cody.english.14?fref=pb
p552
aVhttps://www.facebook.com/briana.marie.1297?fref=pb
p553
aVhttps://www.facebook.com/madison.richmond.3?fref=pb
p554
aVhttps://www.facebook.com/rob.whidby?fref=pb
p555
aVhttps://www.facebook.com/jesse.lavoie.372?fref=pb
p556
aVhttps://www.facebook.com/nikki.s.stricklin?fref=pb
p557
aVhttps://www.facebook.com/hredd4?fref=pb
p558
aVhttps://www.facebook.com/cole.l.cecilia?fref=pb
p559
aVhttps://www.facebook.com/lacey.lantrip?fref=pb
p560
aVhttps://www.facebook.com/ryanandtamilehman?fref=pb
p561
aVhttps://www.facebook.com/smithwnate?fref=pb
p562
aVhttps://www.facebook.com/gavin.raborn?fref=pb
p563
aVhttps://www.facebook.com/abby.gonzales.75?fref=pb
p564
aVhttps://www.facebook.com/blayne.mcpherson?fref=pb
p565
aVhttps://www.facebook.com/aaron.mckenzie.585?fref=pb
p566
aVhttps://www.facebook.com/kaylibobayli?fref=pb
p567
aVhttps://www.facebook.com/hannah.raymo?fref=pb
p568
aVhttps://www.facebook.com/parker.childress.1?fref=pb
p569
aVhttps://www.facebook.com/noah.beard.3?fref=pb
p570
aVhttps://www.facebook.com/raquel.whitmire?fref=pb
p571
aVhttps://www.facebook.com/zachery.lehman.7?fref=pb
p572
aVhttps://www.facebook.com/al.zimmerman.79?fref=pb
p573
aVhttps://www.facebook.com/chance.stinnett.1?fref=pb
p574
aVhttps://www.facebook.com/ty.allenbaugh?fref=pb
p575
aVhttps://www.facebook.com/sydneyeblack?fref=pb
p576
aVhttps://www.facebook.com/isabella.loarteciudad?fref=pb
p577
aVhttps://www.facebook.com/jason.turner.92167789?fref=pb
p578
aVhttps://www.facebook.com/jason.osborn.182?fref=pb
p579
aVhttps://www.facebook.com/mileysfans.cyrus?fref=pb
p580
aVhttps://www.facebook.com/brittany.r.wilson.39?fref=pb
p581
aVhttps://www.facebook.com/bryant.leidy?fref=pb
p582
aVhttps://www.facebook.com/jayson.dejesus.503?fref=pb
p583
aVhttps://www.facebook.com/presley.mullins?fref=pb
p584
aVhttps://www.facebook.com/alli.goade?fref=pb
p585
aVhttps://www.facebook.com/cade.powers.98?fref=pb
p586
aVhttps://www.facebook.com/kale.eddington?fref=pb
p587
aVhttps://www.facebook.com/profile.php?id=100000596446285
p588
aVhttps://www.facebook.com/Baileymichelle7?fref=pb
p589
aVhttps://www.facebook.com/lindsey.k.rochelle?fref=pb
p590
aVhttps://www.facebook.com/diana.b.graf?fref=pb
p591
aVhttps://www.facebook.com/ashlyn.essary?fref=pb
p592
aVhttps://www.facebook.com/david.claytonhenrie.988?fref=pb
p593
aVhttps://www.facebook.com/emi.osment?fref=pb
p594
aVhttps://www.facebook.com/mo.jo.5851127?fref=pb
p595
aVhttps://www.facebook.com/profile.php?id=100000607772609
p596
aVhttps://www.facebook.com/ty.searcy?fref=pb
p597
aVhttps://www.facebook.com/jwalla33?fref=pb
p598
aVhttps://www.facebook.com/selselena.gogomez?fref=pb
p599
aVhttps://www.facebook.com/emma.kuykendall.7?fref=pb
p600
aVhttps://www.facebook.com/Jojocamp98?fref=pb
p601
aVhttps://www.facebook.com/tayleralison.swift.1?fref=pb
p602
aVhttps://www.facebook.com/dougie.hurst?fref=pb
p603
aVhttps://www.facebook.com/adam.stivers.9?fref=pb
p604
aVhttps://www.facebook.com/tonya.nakken?fref=pb
p605
aVhttps://www.facebook.com/dalton.blackwell?fref=pb
p606
aVhttps://www.facebook.com/jake.ferguson.90?fref=pb
p607
aVhttps://www.facebook.com/gage.sullivan.54?fref=pb
p608
aVhttps://www.facebook.com/trey.mafnas.9?fref=pb
p609
aVhttps://www.facebook.com/katelynn.paige?fref=pb
p610
aVhttps://www.facebook.com/samantha.w.thrush?fref=pb
p611
aVhttps://www.facebook.com/jerod.wheeler.7?fref=pb
p612
aVhttps://www.facebook.com/rebekah.harris.102?fref=pb
p613
aVhttps://www.facebook.com/cassandra.m.lowery?fref=pb
p614
aVhttps://www.facebook.com/corey.shock.5?fref=pb
p615
aVhttps://www.facebook.com/bethie.butera?fref=pb
p616
aVhttps://www.facebook.com/camille.leatherwood?fref=pb
p617
aVhttps://www.facebook.com/panthers43H?fref=pb
p618
aVhttps://www.facebook.com/william.andrews.984349?fref=pb
p619
aVhttps://www.facebook.com/reagan.nicole.9?fref=pb
p620
aVhttps://www.facebook.com/phazeonethajerk?fref=pb
p621
aVhttps://www.facebook.com/jewel.roberts.31?fref=pb
p622
aVhttps://www.facebook.com/tara.hernandez.507?fref=pb
p623
aVhttps://www.facebook.com/fischer.huey?fref=pb
p624
aVhttps://www.facebook.com/profile.php?id=100000750622066
p625
aVhttps://www.facebook.com/erica.apple.39?fref=pb
p626
aVhttps://www.facebook.com/nash.fortson?fref=pb
p627
aVhttps://www.facebook.com/brittanibishop?fref=pb
p628
aVhttps://www.facebook.com/angela.chismstafford?fref=pb
p629
aVhttps://www.facebook.com/justin.geantt?fref=pb
p630
aVhttps://www.facebook.com/tanner.tetreault.1?fref=pb
p631
aVhttps://www.facebook.com/automn.r.rogers?fref=pb
p632
aVhttps://www.facebook.com/noah.reed.14?fref=pb
p633
aVhttps://www.facebook.com/laiken.estes?fref=pb
p634
aVhttps://www.facebook.com/crystal.strainholland?fref=pb
p635
aVhttps://www.facebook.com/kameron.eide?fref=pb
p636
aVhttps://www.facebook.com/cameron.stokes.35?fref=pb
p637
aVhttps://www.facebook.com/profile.php?id=100001009758877
p638
aVhttps://www.facebook.com/allison.stanhope.79?fref=pb
p639
aVhttps://www.facebook.com/mark.kienast1?fref=pb
p640
aVhttps://www.facebook.com/sophie.texeira.75?fref=pb
p641
aVhttps://www.facebook.com/sven.white.92?fref=pb
p642
aVhttps://www.facebook.com/robert.thelen.50?fref=pb
p643
aVhttps://www.facebook.com/sarahrae.george?fref=pb
p644
aVhttps://www.facebook.com/deborah.cook.940?fref=pb
p645
aVhttps://www.facebook.com/haley.sobczak.5?fref=pb
p646
aVhttps://www.facebook.com/harris.sutton?fref=pb
p647
aVhttps://www.facebook.com/garrett.covington.1?fref=pb
p648
aVhttps://www.facebook.com/ian.neiswender?fref=pb
p649
aVhttps://www.facebook.com/lheanne.ponseca?fref=pb
p650
aVhttps://www.facebook.com/dylan.riley.562?fref=pb
p651
aVhttps://www.facebook.com/jessica.i.huff?fref=pb
p652
aVhttps://www.facebook.com/daniel.wood.1884?fref=pb
p653
aVhttps://www.facebook.com/morgan.elizabeth.1042?fref=pb
p654
aVhttps://www.facebook.com/kailee.ayers?fref=pb
p655
aVhttps://www.facebook.com/kailey.seibs?fref=pb
p656
aVhttps://www.facebook.com/tailor.ray1?fref=pb
p657
aVhttps://www.facebook.com/holden.beasley?fref=pb
p658
aVhttps://www.facebook.com/brandon.stanley.399?fref=pb
p659
aVhttps://www.facebook.com/wade.palmer.395?fref=pb
p660
aVhttps://www.facebook.com/nate.joyner.52?fref=pb
p661
aVhttps://www.facebook.com/ethan.layton.50?fref=pb
p662
aVhttps://www.facebook.com/tarasthebomb?fref=pb
p663
aVhttps://www.facebook.com/jordan.f.tolliver?fref=pb
p664
aVhttps://www.facebook.com/mary.taylor.9674?fref=pb
p665
aVhttps://www.facebook.com/jessie.windemaker?fref=pb
p666
aVhttps://www.facebook.com/jhase.goff?fref=pb
p667
aVhttps://www.facebook.com/hanna.nicole.9?fref=pb
p668
aVhttps://www.facebook.com/kalea.pekarek?fref=pb
p669
aVhttps://www.facebook.com/kim.mitchell.90475?fref=pb
p670
aVhttps://www.facebook.com/ben.whiting.92?fref=pb
p671
aVhttps://www.facebook.com/profile.php?id=100001146390262
p672
aVhttps://www.facebook.com/CarsonPrieur?fref=pb
p673
aVhttps://www.facebook.com/chipmunk.thomas?fref=pb
p674
aVhttps://www.facebook.com/victoria.gray.353?fref=pb
p675
aVhttps://www.facebook.com/hunter.pool.5?fref=pb
p676
aVhttps://www.facebook.com/summer.michelle.7?fref=pb
p677
aVhttps://www.facebook.com/profile.php?id=100001230944345
p678
aVhttps://www.facebook.com/profile.php?id=100001180860067
p679
aVhttps://www.facebook.com/blaze.forrester?fref=pb
p680
aVhttps://www.facebook.com/maylee.loften?fref=pb
p681
aVhttps://www.facebook.com/christian.asselin.9?fref=pb
p682
aVhttps://www.facebook.com/james.bell.35728?fref=pb
p683
aVhttps://www.facebook.com/blake.nash.54?fref=pb
p684
aVhttps://www.facebook.com/brianna.r.spann?fref=pb
p685
aVhttps://www.facebook.com/tanner.k.jones?fref=pb
p686
aVhttps://www.facebook.com/hunter.poskey?fref=pb
p687
aVhttps://www.facebook.com/kaleb.kauffman.7?fref=pb
p688
aVhttps://www.facebook.com/kevin.pruett.73?fref=pb
p689
aVhttps://www.facebook.com/daisy.clume?fref=pb
p690
aVhttps://www.facebook.com/hailey.carpenter?fref=pb
p691
aVhttps://www.facebook.com/victoria.a.williams.3?fref=pb
p692
aVhttps://www.facebook.com/bennyjrkiller?fref=pb
p693
aVhttps://www.facebook.com/kaylei.gabriel?fref=pb
p694
aVhttps://www.facebook.com/sbryansalcedo?fref=pb
p695
aVhttps://www.facebook.com/alexus.yarbrough?fref=pb
p696
aVhttps://www.facebook.com/profile.php?id=100001234318037
p697
aVhttps://www.facebook.com/brandie.smith.549?fref=pb
p698
aVhttps://www.facebook.com/trey.mafnas?fref=pb
p699
aVhttps://www.facebook.com/coco.calhoon?fref=pb
p700
aVhttps://www.facebook.com/landon.massey.3?fref=pb
p701
aVhttps://www.facebook.com/wyatt.talik?fref=pb
p702
aVhttps://www.facebook.com/raegan.tull?fref=pb
p703
aVhttps://www.facebook.com/ericalynnapple?fref=pb
p704
aVhttps://www.facebook.com/mistilove.sowell?fref=pb
p705
aVhttps://www.facebook.com/Stealers7?fref=pb
p706
aVhttps://www.facebook.com/Hannahistotallyawesome?fref=pb
p707
aVhttps://www.facebook.com/jessie.thrush?fref=pb
p708
aVhttps://www.facebook.com/cole.westbrook?fref=pb
p709
aVhttps://www.facebook.com/shanklesjacob?fref=pb
p710
aVhttps://www.facebook.com/lee.smothers.5?fref=pb
p711
aVhttps://www.facebook.com/pam.w.shields?fref=pb
p712
aVhttps://www.facebook.com/elizabeth.ring.7?fref=pb
p713
aVhttps://www.facebook.com/dwayne.j.franklin.1?fref=pb
p714
aVhttps://www.facebook.com/brandon.hensley.505?fref=pb
p715
aVhttps://www.facebook.com/kenbarbie.love.3?fref=pb
p716
aVhttps://www.facebook.com/nathaniel.martin.94?fref=pb
p717
aVhttps://www.facebook.com/taylor.slaughter.796?fref=pb
p718
aVhttps://www.facebook.com/HAWX75?fref=pb
p719
aVhttps://www.facebook.com/deanna.eddy?fref=pb
p720
aVhttps://www.facebook.com/clay.bellou?fref=pb
p721
aVhttps://www.facebook.com/matthew.landon.923?fref=pb
p722
aVhttps://www.facebook.com/brien.johnson.9?fref=pb
p723
aVhttps://www.facebook.com/drake.brooks.14?fref=pb
p724
aVhttps://www.facebook.com/douglas.wilson.5205?fref=pb
p725
aVhttps://www.facebook.com/katie.wilkerson.14?fref=pb
p726
aVhttps://www.facebook.com/haleigh.geheb?fref=pb
p727
aVhttps://www.facebook.com/jonathan.doughty.7?fref=pb
p728
aVhttps://www.facebook.com/LexiMarieeLuvsYou?fref=pb
p729
aVhttps://www.facebook.com/hayes.barger?fref=pb
p730
aVhttps://www.facebook.com/jamesycheek?fref=pb
p731
aVhttps://www.facebook.com/miya.tatum?fref=pb
p732
aVhttps://www.facebook.com/joseph.denomie.7?fref=pb
p733
aVhttps://www.facebook.com/zachary.powell.3954?fref=pb
p734
aVhttps://www.facebook.com/ashley.montanaro?fref=pb
p735
aVhttps://www.facebook.com/hannah.joslin.71?fref=pb
p736
aVhttps://www.facebook.com/profile.php?id=100001421473289
p737
aVhttps://www.facebook.com/logan.dozier.54?fref=pb
p738
aVhttps://www.facebook.com/jimmie.battlesiii?fref=pb
p739
aVhttps://www.facebook.com/hannah159753?fref=pb
p740
aVhttps://www.facebook.com/austin.malone.338?fref=pb
p741
aVhttps://www.facebook.com/jennifer.speak.3?fref=pb
p742
aVhttps://www.facebook.com/profile.php?id=100001427638307
p743
aVhttps://www.facebook.com/ashlyn.slaughter.5?fref=pb
p744
aVhttps://www.facebook.com/profile.php?id=100001446752326
p745
aVhttps://www.facebook.com/bryan.southerland.75?fref=pb
p746
aVhttps://www.facebook.com/repnRockaFella?fref=pb
p747
aVhttps://www.facebook.com/hanloncaldwell?fref=pb
p748
aVhttps://www.facebook.com/maegan.boo?fref=pb
p749
aVhttps://www.facebook.com/zach.gee1?fref=pb
p750
aVhttps://www.facebook.com/brentstanley01?fref=pb
p751
aVhttps://www.facebook.com/MSkylar11?fref=pb
p752
aVhttps://www.facebook.com/profile.php?id=100001444831652
p753
aVhttps://www.facebook.com/andrew.w.beliew?fref=pb
p754
aVhttps://www.facebook.com/patrick.sqarepants.5?fref=pb
p755
aVhttps://www.facebook.com/froggyreagen13?fref=pb
p756
aVhttps://www.facebook.com/brittanyhowar?fref=pb
p757
aVhttps://www.facebook.com/hailey.sowell?fref=pb
p758
aVhttps://www.facebook.com/cathedral.of.Praise.Cabot?fref=pb
p759
aVhttps://www.facebook.com/meganxxholland?fref=pb
p760
aVhttps://www.facebook.com/michael.villanueva.3304?fref=pb
p761
aVhttps://www.facebook.com/avery.elliott.5?fref=pb
p762
aVhttps://www.facebook.com/lindsey.salzman?fref=pb
p763
aVhttps://www.facebook.com/logan.a.smith.39?fref=pb
p764
aVhttps://www.facebook.com/kristen.walker.524?fref=pb
p765
aVhttps://www.facebook.com/denna.hamm?fref=pb
p766
aVhttps://www.facebook.com/austin.crumpton.5?fref=pb
p767
aVhttps://www.facebook.com/levi.rodgers.1?fref=pb
p768
aVhttps://www.facebook.com/profile.php?id=100001546950055
p769
aVhttps://www.facebook.com/peyton.l.martin?fref=pb
p770
aVhttps://www.facebook.com/madaline.brooke?fref=pb
p771
aVhttps://www.facebook.com/christian.underwood.79?fref=pb
p772
aVhttps://www.facebook.com/matthew.powers.714?fref=pb
p773
aVhttps://www.facebook.com/willcharliescott.scott?fref=pb
p774
aVhttps://www.facebook.com/adrianna.bay1?fref=pb
p775
aVhttps://www.facebook.com/layne.smith.18?fref=pb
p776
aVhttps://www.facebook.com/kaleeguess?fref=pb
p777
aVhttps://www.facebook.com/thomas.horn.9847?fref=pb
p778
aVhttps://www.facebook.com/lauren.bunting.7?fref=pb
p779
aVhttps://www.facebook.com/brayden.alveti?fref=pb
p780
aVhttps://www.facebook.com/trenton.nitram?fref=pb
p781
aVhttps://www.facebook.com/joseph.wade.12?fref=pb
p782
aVhttps://www.facebook.com/caylee.cochran?fref=pb
p783
aVhttps://www.facebook.com/cherylann.winkle?fref=pb
p784
aVhttps://www.facebook.com/americus.huff?fref=pb
p785
aVhttps://www.facebook.com/profile.php?id=100001726144611
p786
aVhttps://www.facebook.com/ashley.eddy.77?fref=pb
p787
aVhttps://www.facebook.com/anna.duncan.73?fref=pb
p788
aVhttps://www.facebook.com/Emilyfre1?fref=pb
p789
aVhttps://www.facebook.com/catherine.davis.942?fref=pb
p790
aVhttps://www.facebook.com/HaleyTuckerModel?fref=pb
p791
aVhttps://www.facebook.com/cassidy.jayne.52?fref=pb
p792
aVhttps://www.facebook.com/harley.rea.5?fref=pb
p793
aVhttps://www.facebook.com/alec.reed.94?fref=pb
p794
aVhttps://www.facebook.com/shanell.magwood?fref=pb
p795
aVhttps://www.facebook.com/jeremiah.wade.75?fref=pb
p796
aVhttps://www.facebook.com/timothy.gardner.144?fref=pb
p797
aVhttps://www.facebook.com/shelby.lewis.334?fref=pb
p798
aVhttps://www.facebook.com/jordan.alese?fref=pb
p799
aVhttps://www.facebook.com/laura.justice.773?fref=pb
p800
aVhttps://www.facebook.com/skstanley1?fref=pb
p801
aVhttps://www.facebook.com/trinity.may.560?fref=pb
p802
aVhttps://www.facebook.com/meghan.toler?fref=pb
p803
aVhttps://www.facebook.com/ashlee.hankins?fref=pb
p804
aVhttps://www.facebook.com/aragorn.smith.9?fref=pb
p805
aVhttps://www.facebook.com/lexie.mckedy?fref=pb
p806
aVhttps://www.facebook.com/lynlea.lohnes?fref=pb
p807
aVhttps://www.facebook.com/THE0.0BAWWSS?fref=pb
p808
aVhttps://www.facebook.com/brianna.winkle.7?fref=pb
p809
aVhttps://www.facebook.com/karina.salcedo.5?fref=pb
p810
aVhttps://www.facebook.com/maddie.stephens2?fref=pb
p811
aVhttps://www.facebook.com/maggie.bush.142?fref=pb
p812
aVhttps://www.facebook.com/baylee.billingsley?fref=pb
p813
aVhttps://www.facebook.com/kellie.suarez.3?fref=pb
p814
aVhttps://www.facebook.com/profile.php?id=100001967008295
p815
aVhttps://www.facebook.com/micah.eppinette?fref=pb
p816
aVhttps://www.facebook.com/straschinske?fref=pb
p817
aVhttps://www.facebook.com/alec.baker.564?fref=pb
p818
aVhttps://www.facebook.com/alicemarie.kikta?fref=pb
p819
aVhttps://www.facebook.com/bryan.j.lindsey?fref=pb
p820
aVhttps://www.facebook.com/sean.lackie.7?fref=pb
p821
aVhttps://www.facebook.com/hayli.nichols?fref=pb
p822
aVhttps://www.facebook.com/brett.walker.589?fref=pb
p823
aVhttps://www.facebook.com/rhea.desilva?fref=pb
p824
aVhttps://www.facebook.com/travenp1?fref=pb
p825
aVhttps://www.facebook.com/hunter.peterson.127?fref=pb
p826
aVhttps://www.facebook.com/barrett.stark.7?fref=pb
p827
aVhttps://www.facebook.com/coren.smith.35?fref=pb
p828
aVhttps://www.facebook.com/shannon.phillips.3726?fref=pb
p829
aVhttps://www.facebook.com/profile.php?id=100002074217832
p830
aVhttps://www.facebook.com/nichole.smith.336333?fref=pb
p831
aVhttps://www.facebook.com/halle.youngblood?fref=pb
p832
aVhttps://www.facebook.com/braden.jarnagin?fref=pb
p833
aVhttps://www.facebook.com/profile.php?id=100002199112149
p834
aVhttps://www.facebook.com/cade.hart.1?fref=pb
p835
aVhttps://www.facebook.com/taylormariecollins?fref=pb
p836
aVhttps://www.facebook.com/joie.owens?fref=pb
p837
aVhttps://www.facebook.com/melissa.smithson.180?fref=pb
p838
aVhttps://www.facebook.com/nickpotts95?fref=pb
p839
aVhttps://www.facebook.com/gisselle.rios.75?fref=pb
p840
aVhttps://www.facebook.com/ashley.glover.524?fref=pb
p841
aVhttps://www.facebook.com/63mayflowerfootball?fref=pb
p842
aVhttps://www.facebook.com/kobie.johnson.9?fref=pb
p843
aVhttps://www.facebook.com/david.elrod.568?fref=pb
p844
aVhttps://www.facebook.com/jessee.zelnick?fref=pb
p845
aVhttps://www.facebook.com/kara.estes.9?fref=pb
p846
aVhttps://www.facebook.com/alyxandra.soderling?fref=pb
p847
aVhttps://www.facebook.com/austin.lawhon.1?fref=pb
p848
aVhttps://www.facebook.com/hunter.palladino?fref=pb
p849
aVhttps://www.facebook.com/scotty.mccreery.9461?fref=pb
p850
aVhttps://www.facebook.com/maxmanolo?fref=pb
p851
aVhttps://www.facebook.com/kaitlyn.tune?fref=pb
p852
aVhttps://www.facebook.com/chayanne.chatelain?fref=pb
p853
aVhttps://www.facebook.com/colton.e.johnson?fref=pb
p854
aVhttps://www.facebook.com/hollyann.beckner?fref=pb
p855
aVhttps://www.facebook.com/dalton.g.freeman?fref=pb
p856
aVhttps://www.facebook.com/taylor.kirtley?fref=pb
p857
aVhttps://www.facebook.com/BluntssBeffoooreeCunnntsss?fref=pb
p858
aVhttps://www.facebook.com/seth.stewart.378?fref=pb
p859
aVhttps://www.facebook.com/Carmen.lane3?fref=pb
p860
aVhttps://www.facebook.com/marypaige.evans?fref=pb
p861
aVhttps://www.facebook.com/alexis.freeman.773?fref=pb
p862
aVhttps://www.facebook.com/lauren.alaina.737?fref=pb
p863
aVhttps://www.facebook.com/alexis.janett?fref=pb
p864
aVhttps://www.facebook.com/profile.php?id=100002434621477
p865
aVhttps://www.facebook.com/dalyn.shoults?fref=pb
p866
aVhttps://www.facebook.com/pepa.tesar.5?fref=pb
p867
aVhttps://www.facebook.com/leeann.dickinson?fref=pb
p868
aVhttps://www.facebook.com/brooke.bennett.353?fref=pb
p869
aVhttps://www.facebook.com/tyler.weatherley?fref=pb
p870
aVhttps://www.facebook.com/seth.gilbert.54?fref=pb
p871
aVhttps://www.facebook.com/nate.stewart.940?fref=pb
p872
aVhttps://www.facebook.com/stephen.vaughn.315?fref=pb
p873
aVhttps://www.facebook.com/ripgage.sullivan?fref=pb
p874
aVhttps://www.facebook.com/isaya.oneill?fref=pb
p875
aVhttps://www.facebook.com/muhammed.abdullah.562?fref=pb
p876
aVhttps://www.facebook.com/lane.perry2?fref=pb
p877
aVhttps://www.facebook.com/rip.gagesullivan.9?fref=pb
p878
aVhttps://www.facebook.com/shiloh.rane?fref=pb
p879
aVhttps://www.facebook.com/JustinBieber.Official.Celebrity.Account?fref=pb
p880
aVhttps://www.facebook.com/corey.fowler.39?fref=pb
p881
aVhttps://www.facebook.com/haley.cash.5?fref=pb
p882
aVhttps://www.facebook.com/avan.jogia.505?fref=pb
p883
aVhttps://www.facebook.com/Caitybearzzz?fref=pb
p884
aVhttps://www.facebook.com/ryan.holland.399?fref=pb
p885
aVhttps://www.facebook.com/bradley.gray.982?fref=pb
p886
aVhttps://www.facebook.com/bri.marie.9026?fref=pb
p887
aVhttps://www.facebook.com/kellibug.cm?fref=pb
p888
aVhttps://www.facebook.com/kolton.eads?fref=pb
p889
aVhttps://www.facebook.com/amandaaa1?fref=pb
p890
aVhttps://www.facebook.com/profile.php?id=100002560867778
p891
aVhttps://www.facebook.com/gary.cook.90?fref=pb
p892
aVhttps://www.facebook.com/TheOfficialAccountOfAvanJogia?fref=pb
p893
aVhttps://www.facebook.com/profile.php?id=100002520566666
p894
aVhttps://www.facebook.com/lauren.sullivan.121?fref=pb
p895
aVhttps://www.facebook.com/jay.bieber.58?fref=pb
p896
aVhttps://www.facebook.com/sven.white.12?fref=pb
p897
aVhttps://www.facebook.com/faith.terry.12?fref=pb
p898
aVhttps://www.facebook.com/hunter.ross.92?fref=pb
p899
aVhttps://www.facebook.com/emily.sumler?fref=pb
p900
aVhttps://www.facebook.com/ryan.humphries.77?fref=pb
p901
aVhttps://www.facebook.com/profile.php?id=100002780018211
p902
aVhttps://www.facebook.com/sk88e?fref=pb
p903
aVhttps://www.facebook.com/nichole.austin.7?fref=pb
p904
aVhttps://www.facebook.com/sadako.kobra?fref=pb
p905
aVhttps://www.facebook.com/timone.pumba.946?fref=pb
p906
aVhttps://www.facebook.com/craytonjon.wort?fref=pb
p907
aVhttps://www.facebook.com/brian.henderson.378?fref=pb
p908
aVhttps://www.facebook.com/preston.schluterman.5?fref=pb
p909
aVhttps://www.facebook.com/cabot.dance.3?fref=pb
p910
aVhttps://www.facebook.com/cort.rochelle?fref=pb
p911
aVhttps://www.facebook.com/kayla.mitchell.9406?fref=pb
p912
aVhttps://www.facebook.com/zachary.kendall.148?fref=pb
p913
aVhttps://www.facebook.com/ethan.haley.7?fref=pb
p914
aVhttps://www.facebook.com/leelee.denton?fref=pb
p915
aVhttps://www.facebook.com/profile.php?id=100002748455922
p916
aVhttps://www.facebook.com/devin.mclean.39?fref=pb
p917
aVhttps://www.facebook.com/thabata.lasnor?fref=pb
p918
aVhttps://www.facebook.com/profile.php?id=100002959219003
p919
aVhttps://www.facebook.com/kassie.estes?fref=pb
p920
aVhttps://www.facebook.com/ethan.hotshot?fref=pb
p921
aVhttps://www.facebook.com/matthewarthurwade123?fref=pb
p922
aVhttps://www.facebook.com/profile.php?id=100003249773542
p923
aVhttps://www.facebook.com/selena.jones.775?fref=pb
p924
aVhttps://www.facebook.com/nick.coward.50?fref=pb
p925
aVhttps://www.facebook.com/mia.sheets?fref=pb
p926
aVhttps://www.facebook.com/profile.php?id=100003165731133
p927
aVhttps://www.facebook.com/sarah.peters.144?fref=pb
p928
aVhttps://www.facebook.com/andrea.rouse.353?fref=pb
p929
aVhttps://www.facebook.com/dylan.chavez.100?fref=pb
p930
aVhttps://www.facebook.com/alec.cochran.18?fref=pb
p931
aVhttps://www.facebook.com/natalie.way.75?fref=pb
p932
aVhttps://www.facebook.com/anne.bedrosian?fref=pb
p933
aVhttps://www.facebook.com/grayson.phillips.98?fref=pb
p934
aVhttps://www.facebook.com/brianna.hawkins.54?fref=pb
p935
aVhttps://www.facebook.com/andy.coughlin.79?fref=pb
p936
aVhttps://www.facebook.com/leslie.clark.92?fref=pb
p937
aVhttps://www.facebook.com/skyler.ward.75?fref=pb
p938
aVhttps://www.facebook.com/julia.kang.71?fref=pb
p939
aVhttps://www.facebook.com/jordan.korzen?fref=pb
p940
aVhttps://www.facebook.com/jarod.lavender?fref=pb
p941
aVhttps://www.facebook.com/madie.sims.3?fref=pb
p942
aVhttps://www.facebook.com/caitlyn.thomson.1?fref=pb
p943
aVhttps://www.facebook.com/dakota.dennisbasham?fref=pb
p944
aVhttps://www.facebook.com/Bethany.Anne.Hill?fref=pb
p945
aVhttps://www.facebook.com/james.eversole.14?fref=pb
p946
aVhttps://www.facebook.com/amanda.gathright.7?fref=pb
p947
aVhttps://www.facebook.com/caleb.bryant.3785?fref=pb
p948
aVhttps://www.facebook.com/faith.ball.90?fref=pb
p949
aVhttps://www.facebook.com/justin.gill.777?fref=pb
p950
aVhttps://www.facebook.com/kim.pinter.5?fref=pb
p951
aVhttps://www.facebook.com/livi.harvey.9?fref=pb
p952
aVhttps://www.facebook.com/profile.php?id=100003398594161
p953
aVhttps://www.facebook.com/jennifer.barlow.73?fref=pb
p954
aVhttps://www.facebook.com/adriana.marte.7?fref=pb
p955
aVhttps://www.facebook.com/missbayleexoxo?fref=pb
p956
aVhttps://www.facebook.com/profile.php?id=100003373141202
p957
aVhttps://www.facebook.com/mrgnskye?fref=pb
p958
aVhttps://www.facebook.com/daqauwn?fref=pb
p959
aVhttps://www.facebook.com/TheWaterFalton?fref=pb
p960
aVhttps://www.facebook.com/tyler.juckett.98?fref=pb
p961
aVhttps://www.facebook.com/profile.php?id=100003862402520
p962
aVhttps://www.facebook.com/desiree.olivia.54?fref=pb
p963
aVhttps://www.facebook.com/caliegh.walez?fref=pb
p964
aVhttps://www.facebook.com/Justintimeforu?fref=pb
p965
aVhttps://www.facebook.com/julia.capri1?fref=pb
p966
aVhttps://www.facebook.com/lane.brewer.984?fref=pb
p967
aVhttps://www.facebook.com/harley.gehring.9?fref=pb
p968
aVhttps://www.facebook.com/cayteerae.wright?fref=pb
p969
aVhttps://www.facebook.com/emma.dillard.39?fref=pb
p970
aVhttps://www.facebook.com/adarius.stephens.3?fref=pb
p971
aVhttps://www.facebook.com/waba.parks?fref=pb
p972
aVhttps://www.facebook.com/whitney.king.758?fref=pb
p973
aVhttps://www.facebook.com/calley.aleeneyetts?fref=pb
p974
aVhttps://www.facebook.com/seaquon?fref=pb
p975
aVhttps://www.facebook.com/jake.rush.35?fref=pb
p976
aVhttps://www.facebook.com/cole.rogers.142?fref=pb
p977
aVhttps://www.facebook.com/dakota.sage.77?fref=pb
p978
aVhttps://www.facebook.com/morgan.bush.5811?fref=pb
p979
aVhttps://www.facebook.com/brittarmenta00?fref=pb
p980
aVhttps://www.facebook.com/profile.php?id=100004422942056
p981
aVhttps://www.facebook.com/stormy.bell.315?fref=pb
p982
aVhttps://www.facebook.com/shelby.brown.167527?fref=pb
p983
aVhttps://www.facebook.com/profile.php?id=100004340282250
p984
aVhttps://www.facebook.com/lee.seibert.16?fref=pb
p985
aVhttps://www.facebook.com/alexis.freeman.125?fref=pb
p986
aVhttps://www.facebook.com/profile.php?id=100004677700509
p987
aVhttps://www.facebook.com/gage.munoz.3?fref=pb
p988
aVhttps://www.facebook.com/katie.delp.52?fref=pb
p989
aVhttps://www.facebook.com/profile.php?id=100004128930393
p990
aVhttps://www.facebook.com/bailey.best.50?fref=pb
p991
aVhttps://www.facebook.com/madi.burrow?fref=pb
p992
aVhttps://www.facebook.com/profile.php?id=100004581091996
p993
aVhttps://www.facebook.com/profile.php?id=100004706705783
p994
aVhttps://www.facebook.com/brylei.metcalf?fref=pb
p995
aVhttps://www.facebook.com/taylor.higgins.5473?fref=pb
p996
aVhttps://www.facebook.com/justin.chandler.585?fref=pb
p997
aVhttps://www.facebook.com/jimmy.mudd.92?fref=pb
p998
aVhttps://www.facebook.com/josie.starr.37?fref=pb
p999
aVhttps://www.facebook.com/toriy.williams?fref=pb
p1000
aVhttps://www.facebook.com/mackenzie.metheny1?fref=pb
p1001
aVhttps://www.facebook.com/jt.stump?fref=pb
p1002
aVhttps://www.facebook.com/colton.johnson.3591?fref=pb
p1003
aVhttps://www.facebook.com/bryan.mccurley.5?fref=pb
p1004
aVhttps://www.facebook.com/rail.gilliam?fref=pb
p1005
aVhttps://www.facebook.com/matt.hand.3726?fref=pb
p1006
aVhttps://www.facebook.com/shannon.phillips.524596?fref=pb
p1007
aVhttps://www.facebook.com/shelbynicole.smith.9?fref=pb
p1008
aVhttps://www.facebook.com/profile.php?id=100004946195697
p1009
aVhttps://www.facebook.com/autumne.kendricks.94?fref=pb
p1010
aVhttps://www.facebook.com/profile.php?id=100005457459722
p1011
aVhttps://www.facebook.com/justin.bell.5494360?fref=pb
p1012
aVhttps://www.facebook.com/dean.phillips.1441?fref=pb
p1013
aVhttps://www.facebook.com/haden.hackler?fref=pb
p1014
aVhttps://www.facebook.com/chelsea.diane.71?fref=pb
p1015
aVhttps://www.facebook.com/blair.pryor.1?fref=pb
p1016
aVhttps://www.facebook.com/profile.php?id=100005328215453
p1017
aVhttps://www.facebook.com/hunter.hackler.96?fref=pb
p1018
aVhttps://www.facebook.com/haley.kostboth.1?fref=pb
p1019
aVhttps://www.facebook.com/matthew.mcdonald.96558061?fref=pb
p1020
aVhttps://www.facebook.com/gin.ro.3?fref=pb
p1021
aVhttps://www.facebook.com/ethan.hance.9?fref=pb
p1022
aVhttps://www.facebook.com/angela.haley.921?fref=pb
p1023
aVhttps://www.facebook.com/fiky.ambon?fref=pb
p1024
aVhttps://www.facebook.com/aleigha.smith.75?fref=pb
p1025
aVhttps://www.facebook.com/tamarrea.moore.5?fref=pb
p1026
aVhttps://www.facebook.com/james.sweat.5209?fref=pb
p1027
aVhttps://www.facebook.com/dalton.phillips.7773?fref=pb
p1028
aVhttps://www.facebook.com/profile.php?id=100006477413620
p1029
aVhttps://www.facebook.com/tori.raner?fref=pb
p1030
aVhttps://www.facebook.com/michael.kige.3?fref=pb
p1031
aVhttps://www.facebook.com/bobo.rogers.73?fref=pb
p1032
aVhttps://www.facebook.com/raquel.whitmire.9?fref=pb
p1033
aVhttps://www.facebook.com/karma.cox.756?fref=pb
p1034
aVhttps://www.facebook.com/tara.morrow.10?fref=pb
p1035
aVhttps://www.facebook.com/profile.php?id=100005704271315
p1036
aVhttps://www.facebook.com/profile.php?id=100007239751985
p1037
aVhttps://www.facebook.com/endo.lewaherilla?fref=pb
p1038
aVhttps://www.facebook.com/holly.frank.12?fref=pb
p1039
aVhttps://www.facebook.com/nathan.chamberlin.904?fref=pb
p1040
aVhttps://www.facebook.com/lawrence.brown.351104?fref=pb
p1041
aVhttps://www.facebook.com/john.wiens.35?fref=pb
p1042
aVhttps://www.facebook.com/kayla.ann.1447?fref=pb
p1043
aVhttps://www.facebook.com/hanna.duren?fref=pb
p1044
aVhttps://www.facebook.com/luke.hickman.127?fref=pb
p1045
aVhttps://www.facebook.com/braden.franks.3?fref=pb
p1046
aVhttps://www.facebook.com/loqka.jote.5076?fref=pb
p1047
aVhttps://www.facebook.com/naomi.clark.5095110?fref=pb
p1048
aVhttps://www.facebook.com/jesaca.mccartney.3?fref=pb
p1049
aVhttps://www.facebook.com/juston.nakken?fref=pb
p1050
aVhttps://www.facebook.com/garrett.key.33?fref=pb
p1051
aVhttps://www.facebook.com/profile.php?id=100006862805985
p1052
aVhttps://www.facebook.com/profile.php?id=100008659577237
p1053
aVhttps://www.facebook.com/profile.php?id=100009293242151
p1054
aVhttps://www.facebook.com/chris.delp.9250?fref=pb
p1055
aVhttps://www.facebook.com/logan.kirkendoll.5?fref=pb
p1056
aVhttps://www.facebook.com/profile.php?id=100009869494541
p1057
aVhttps://www.facebook.com/lila.miller.9809?fref=pb
p1058
aVhttps://www.facebook.com/profile.php?id=100009835241488
p1059
aVhttps://www.facebook.com/kadin.phillips.9?fref=pb
p1060
aVhttps://www.facebook.com/profile.php?id=100010983368936
p1061
aVhttps://www.facebook.com/grayson.phillips.395?fref=pb
p1062
a.